target datalayout = "e-m:e-p270:32:32-p271:32:32-p272:64:64-i64:64-i128:128-f80:128-n8:16:32:64-S128"
target triple = "x86_64-pc-linux-gnu"

@mv_penalty = internal global [8 x [16385 x i8]] zeroinitializer, align 16
@ff_mvtab = external constant [33 x [2 x i8]], align 16
@umv_fcode_tab = internal global [8193 x i8] zeroinitializer, align 16
@ff_log2_tab = external constant [256 x i8], align 16

; Function Attrs: alwaysinline nounwind willreturn memory(none) uwtable
define internal i32 @ff_log2_c(i32 noundef %0) #8 {
  %2 = alloca i32, align 4
  %3 = alloca i32, align 4
  store i32 %0, ptr %2, align 4, !tbaa !9
  call void @llvm.lifetime.start.p0(i64 4, ptr %3) #11
  store i32 0, ptr %3, align 4, !tbaa !9
  %4 = load i32, ptr %2, align 4, !tbaa !9
  %5 = and i32 %4, -65536
  %6 = icmp ne i32 %5, 0
  br i1 %6, label %7, label %12

7:                                                ; preds = %1
  %8 = load i32, ptr %2, align 4, !tbaa !9
  %9 = lshr i32 %8, 16
  store i32 %9, ptr %2, align 4, !tbaa !9
  %10 = load i32, ptr %3, align 4, !tbaa !9
  %11 = add nsw i32 %10, 16
  store i32 %11, ptr %3, align 4, !tbaa !9
  br label %12

12:                                               ; preds = %7, %1
  %13 = load i32, ptr %2, align 4, !tbaa !9
  %14 = and i32 %13, 65280
  %15 = icmp ne i32 %14, 0
  br i1 %15, label %16, label %21

16:                                               ; preds = %12
  %17 = load i32, ptr %2, align 4, !tbaa !9
  %18 = lshr i32 %17, 8
  store i32 %18, ptr %2, align 4, !tbaa !9
  %19 = load i32, ptr %3, align 4, !tbaa !9
  %20 = add nsw i32 %19, 8
  store i32 %20, ptr %3, align 4, !tbaa !9
  br label %21

21:                                               ; preds = %16, %12
  %22 = load i32, ptr %2, align 4, !tbaa !9
  %23 = zext i32 %22 to i64
  %24 = getelementptr inbounds nuw [256 x i8], ptr @ff_log2_tab, i64 0, i64 %23
  %25 = load i8, ptr %24, align 1, !tbaa !11
  %26 = zext i8 %25 to i32
  %27 = load i32, ptr %3, align 4, !tbaa !9
  %28 = add nsw i32 %27, %26
  store i32 %28, ptr %3, align 4, !tbaa !9
  %29 = load i32, ptr %3, align 4, !tbaa !9
  call void @llvm.lifetime.end.p0(i64 4, ptr %3) #11
  ret i32 %29
}

; Function Attrs: cold nounwind optsize uwtable
define internal void @init_mv_penalty_and_fcode() #0 {
  %1 = alloca i32, align 4
  %2 = alloca i32, align 4
  %3 = alloca i32, align 4
  %4 = alloca i32, align 4
  %5 = alloca i32, align 4
  %6 = alloca i32, align 4
  %7 = alloca i32, align 4
  call void @llvm.lifetime.start.p0(i64 4, ptr %1) #11
  store i32 1, ptr %1, align 4, !tbaa !9
  br label %8

8:                                                ; preds = %72, %0
  %9 = load i32, ptr %1, align 4, !tbaa !9
  %10 = icmp sle i32 %9, 7
  br i1 %10, label %12, label %11

11:                                               ; preds = %8
  store i32 2, ptr %2, align 4
  call void @llvm.lifetime.end.p0(i64 4, ptr %1) #11
  br label %75

12:                                               ; preds = %8
  call void @llvm.lifetime.start.p0(i64 4, ptr %3) #11
  store i32 -8192, ptr %3, align 4, !tbaa !9
  br label %13

13:                                               ; preds = %68, %12
  %14 = load i32, ptr %3, align 4, !tbaa !9
  %15 = icmp sle i32 %14, 8192
  br i1 %15, label %17, label %16

16:                                               ; preds = %13
  store i32 5, ptr %2, align 4
  call void @llvm.lifetime.end.p0(i64 4, ptr %3) #11
  br label %71

17:                                               ; preds = %13
  call void @llvm.lifetime.start.p0(i64 4, ptr %4) #11
  %18 = load i32, ptr %3, align 4, !tbaa !9
  %19 = icmp eq i32 %18, 0
  br i1 %19, label %20, label %21

20:                                               ; preds = %17
  store i32 1, ptr %4, align 4, !tbaa !9
  br label %58

21:                                               ; preds = %17
  call void @llvm.lifetime.start.p0(i64 4, ptr %5) #11
  call void @llvm.lifetime.start.p0(i64 4, ptr %6) #11
  call void @llvm.lifetime.start.p0(i64 4, ptr %7) #11
  %22 = load i32, ptr %1, align 4, !tbaa !9
  %23 = sub nsw i32 %22, 1
  store i32 %23, ptr %6, align 4, !tbaa !9
  %24 = load i32, ptr %3, align 4, !tbaa !9
  store i32 %24, ptr %5, align 4, !tbaa !9
  %25 = load i32, ptr %5, align 4, !tbaa !9
  %26 = icmp slt i32 %25, 0
  br i1 %26, label %27, label %30

27:                                               ; preds = %21
  %28 = load i32, ptr %5, align 4, !tbaa !9
  %29 = sub nsw i32 0, %28
  store i32 %29, ptr %5, align 4, !tbaa !9
  br label %30

30:                                               ; preds = %27, %21
  %31 = load i32, ptr %5, align 4, !tbaa !9
  %32 = add nsw i32 %31, -1
  store i32 %32, ptr %5, align 4, !tbaa !9
  %33 = load i32, ptr %5, align 4, !tbaa !9
  %34 = load i32, ptr %6, align 4, !tbaa !9
  %35 = ashr i32 %33, %34
  %36 = add nsw i32 %35, 1
  store i32 %36, ptr %7, align 4, !tbaa !9
  %37 = load i32, ptr %7, align 4, !tbaa !9
  %38 = icmp slt i32 %37, 33
  br i1 %38, label %39, label %49

39:                                               ; preds = %30
  %40 = load i32, ptr %7, align 4, !tbaa !9
  %41 = sext i32 %40 to i64
  %42 = getelementptr inbounds [33 x [2 x i8]], ptr @ff_mvtab, i64 0, i64 %41
  %43 = getelementptr inbounds [2 x i8], ptr %42, i64 0, i64 1
  %44 = load i8, ptr %43, align 1, !tbaa !11
  %45 = zext i8 %44 to i32
  %46 = add nsw i32 %45, 1
  %47 = load i32, ptr %6, align 4, !tbaa !9
  %48 = add nsw i32 %46, %47
  store i32 %48, ptr %4, align 4, !tbaa !9
  br label %57

49:                                               ; preds = %30
  %50 = load i32, ptr %7, align 4, !tbaa !9
  %51 = ashr i32 %50, 5
  %52 = call i32 @ff_log2_c(i32 noundef %51) #12
  %53 = add nsw i32 12, %52
  %54 = add nsw i32 %53, 2
  %55 = load i32, ptr %6, align 4, !tbaa !9
  %56 = add nsw i32 %54, %55
  store i32 %56, ptr %4, align 4, !tbaa !9
  br label %57

57:                                               ; preds = %49, %39
  call void @llvm.lifetime.end.p0(i64 4, ptr %7) #11
  call void @llvm.lifetime.end.p0(i64 4, ptr %6) #11
  call void @llvm.lifetime.end.p0(i64 4, ptr %5) #11
  br label %58

58:                                               ; preds = %57, %20
  %59 = load i32, ptr %4, align 4, !tbaa !9
  %60 = trunc i32 %59 to i8
  %61 = load i32, ptr %1, align 4, !tbaa !9
  %62 = sext i32 %61 to i64
  %63 = getelementptr inbounds [8 x [16385 x i8]], ptr @mv_penalty, i64 0, i64 %62
  %64 = load i32, ptr %3, align 4, !tbaa !9
  %65 = add nsw i32 %64, 8192
  %66 = sext i32 %65 to i64
  %67 = getelementptr inbounds [16385 x i8], ptr %63, i64 0, i64 %66
  store i8 %60, ptr %67, align 1, !tbaa !11
  call void @llvm.lifetime.end.p0(i64 4, ptr %4) #11
  br label %68

68:                                               ; preds = %58
  %69 = load i32, ptr %3, align 4, !tbaa !9
  %70 = add nsw i32 %69, 1
  store i32 %70, ptr %3, align 4, !tbaa !9
  br label %13, !llvm.loop !154

71:                                               ; preds = %16
  br label %72

72:                                               ; preds = %71
  %73 = load i32, ptr %1, align 4, !tbaa !9
  %74 = add nsw i32 %73, 1
  store i32 %74, ptr %1, align 4, !tbaa !9
  br label %8, !llvm.loop !155

75:                                               ; preds = %11
  call void @llvm.memset.p0.i64(ptr align 16 @umv_fcode_tab, i8 1, i64 8193, i1 false)
  ret void
}