; Function Attrs: cold nofree norecurse nosync nounwind optsize memory(write, argmem: none, inaccessiblemem: none) uwtable
define internal fastcc void @init_mv_penalty_and_fcode() unnamed_addr #8 {
  br label %.preheader

.preheader:                                       ; preds = %0, %7
  %indvars.iv28 = phi i64 [ 1, %0 ], [ %indvars.iv.next29, %7 ]
  %1 = trunc i64 %indvars.iv28 to i32
  %2 = add i32 %1, -1
  %3 = trunc i64 %indvars.iv28 to i32
  %4 = add i32 %3, 13
  %5 = trunc nuw nsw i64 %indvars.iv28 to i32
  br label %8

6:                                                ; preds = %7
  tail call void @llvm.memset.p0.i64(ptr noundef nonnull align 16 dereferenceable(8193) @umv_fcode_tab, i8 1, i64 8193, i1 false)
  ret void

7:                                                ; preds = %33
  %indvars.iv.next29 = add nuw nsw i64 %indvars.iv28, 1
  %exitcond32.not = icmp eq i64 %indvars.iv.next29, 8
  br i1 %exitcond32.not, label %6, label %.preheader, !llvm.loop !157

8:                                                ; preds = %.preheader, %33
  %indvars.iv = phi i64 [ -8192, %.preheader ], [ %indvars.iv.next, %33 ]
  %9 = icmp eq i64 %indvars.iv, 0
  br i1 %9, label %33, label %10

10:                                               ; preds = %8
  %11 = trunc nsw i64 %indvars.iv to i32
  %spec.select = tail call i32 @llvm.abs.i32(i32 %11, i1 true)
  %12 = add nsw i32 %spec.select, -1
  %13 = ashr i32 %12, %2
  %14 = add nsw i32 %13, 1
  %15 = icmp slt i32 %13, 32
  br i1 %15, label %16, label %22

16:                                               ; preds = %10
  %17 = zext nneg i32 %14 to i64
  %18 = getelementptr inbounds nuw [33 x [2 x i8]], ptr @ff_mvtab, i64 0, i64 %17, i64 1
  %19 = load i8, ptr %18, align 1, !tbaa !14
  %20 = zext i8 %19 to i32
  %21 = add nuw nsw i32 %5, %20
  br label %31

22:                                               ; preds = %10
  %.not.i = icmp samesign ult i32 %14, 2097152
  %spec.select.i.v = select i1 %.not.i, i32 5, i32 21
  %spec.select.i = lshr i32 %14, %spec.select.i.v
  %spec.select12.i = select i1 %.not.i, i32 0, i32 16
  %.not11.i = icmp samesign ult i32 %spec.select.i, 256
  %23 = lshr i32 %spec.select.i, 8
  %24 = or disjoint i32 %spec.select12.i, 8
  %.110.i = select i1 %.not11.i, i32 %spec.select.i, i32 %23
  %.1.i = select i1 %.not11.i, i32 %spec.select12.i, i32 %24
  %25 = zext nneg i32 %.110.i to i64
  %26 = getelementptr inbounds nuw [256 x i8], ptr @ff_log2_tab, i64 0, i64 %25
  %27 = load i8, ptr %26, align 1, !tbaa !14
  %28 = zext i8 %27 to i32
  %29 = add i32 %4, %.1.i
  %30 = add i32 %29, %28
  br label %31

31:                                               ; preds = %22, %16
  %.1 = phi i32 [ %21, %16 ], [ %30, %22 ]
  %32 = trunc i32 %.1 to i8
  br label %33

33:                                               ; preds = %8, %31
  %.021 = phi i8 [ %32, %31 ], [ 1, %8 ]
  %34 = add nsw i64 %indvars.iv, 8192
  %35 = getelementptr inbounds [8 x [16385 x i8]], ptr @mv_penalty, i64 0, i64 %indvars.iv28, i64 %34
  store i8 %.021, ptr %35, align 1, !tbaa !14
  %indvars.iv.next = add nsw i64 %indvars.iv, 1
  %exitcond.not = icmp eq i64 %indvars.iv.next, 8193
  br i1 %exitcond.not, label %7, label %8, !llvm.loop !158
}